target datalayout = "e-m:e-p270:32:32-p271:32:32-p272:64:64-i64:64-i128:128-f80:128-n8:16:32:64-S128"
target triple = "x86_64-pc-linux-gnu"

%struct.deal = type { i32, i32, [3 x i32], [3 x i32], [4 x [4 x i32]] }
%struct.boards = type { i32, [200 x %struct.deal], [200 x i32], [200 x i32], [200 x i32] }

; Function Attrs: mustprogress nounwind uwtable
define noundef zeroext i1 @_Z9SameBoardRK6boardsjj(ptr noundef nonnull align 4 dereferenceable(21604) %0, i32 noundef %1, i32 noundef %2) #6 {
  %4 = alloca i1, align 1
  %5 = alloca ptr, align 8
  %6 = alloca i32, align 4
  %7 = alloca i32, align 4
  %8 = alloca i32, align 4
  %9 = alloca i32, align 4
  %10 = alloca i32, align 4
  store ptr %0, ptr %5, align 8
  store i32 %1, ptr %6, align 4
  store i32 %2, ptr %7, align 4
  store i32 0, ptr %8, align 4
  br label %11

11:                                               ; preds = %52, %3
  %12 = load i32, ptr %8, align 4
  %13 = icmp slt i32 %12, 4
  br i1 %13, label %14, label %55

14:                                               ; preds = %11
  store i32 0, ptr %9, align 4
  br label %15

15:                                               ; preds = %48, %14
  %16 = load i32, ptr %9, align 4
  %17 = icmp slt i32 %16, 4
  br i1 %17, label %18, label %51

18:                                               ; preds = %15
  %19 = load ptr, ptr %5, align 8
  %20 = getelementptr inbounds nuw %struct.boards, ptr %19, i32 0, i32 1
  %21 = load i32, ptr %6, align 4
  %22 = zext i32 %21 to i64
  %23 = getelementptr inbounds [200 x %struct.deal], ptr %20, i64 0, i64 %22
  %24 = getelementptr inbounds nuw %struct.deal, ptr %23, i32 0, i32 4
  %25 = load i32, ptr %8, align 4
  %26 = sext i32 %25 to i64
  %27 = getelementptr inbounds [4 x [4 x i32]], ptr %24, i64 0, i64 %26
  %28 = load i32, ptr %9, align 4
  %29 = sext i32 %28 to i64
  %30 = getelementptr inbounds [4 x i32], ptr %27, i64 0, i64 %29
  %31 = load i32, ptr %30, align 4
  %32 = load ptr, ptr %5, align 8
  %33 = getelementptr inbounds nuw %struct.boards, ptr %32, i32 0, i32 1
  %34 = load i32, ptr %7, align 4
  %35 = zext i32 %34 to i64
  %36 = getelementptr inbounds [200 x %struct.deal], ptr %33, i64 0, i64 %35
  %37 = getelementptr inbounds nuw %struct.deal, ptr %36, i32 0, i32 4
  %38 = load i32, ptr %8, align 4
  %39 = sext i32 %38 to i64
  %40 = getelementptr inbounds [4 x [4 x i32]], ptr %37, i64 0, i64 %39
  %41 = load i32, ptr %9, align 4
  %42 = sext i32 %41 to i64
  %43 = getelementptr inbounds [4 x i32], ptr %40, i64 0, i64 %42
  %44 = load i32, ptr %43, align 4
  %45 = icmp ne i32 %31, %44
  br i1 %45, label %46, label %47

46:                                               ; preds = %18
  store i1 false, ptr %4, align 1
  br label %189

47:                                               ; preds = %18
  br label %48

48:                                               ; preds = %47
  %49 = load i32, ptr %9, align 4
  %50 = add nsw i32 %49, 1
  store i32 %50, ptr %9, align 4
  br label %15, !llvm.loop !14

51:                                               ; preds = %15
  br label %52

52:                                               ; preds = %51
  %53 = load i32, ptr %8, align 4
  %54 = add nsw i32 %53, 1
  store i32 %54, ptr %8, align 4
  br label %11, !llvm.loop !15

55:                                               ; preds = %11
  %56 = load ptr, ptr %5, align 8
  %57 = getelementptr inbounds nuw %struct.boards, ptr %56, i32 0, i32 4
  %58 = load i32, ptr %6, align 4
  %59 = zext i32 %58 to i64
  %60 = getelementptr inbounds [200 x i32], ptr %57, i64 0, i64 %59
  %61 = load i32, ptr %60, align 4
  %62 = load ptr, ptr %5, align 8
  %63 = getelementptr inbounds nuw %struct.boards, ptr %62, i32 0, i32 4
  %64 = load i32, ptr %7, align 4
  %65 = zext i32 %64 to i64
  %66 = getelementptr inbounds [200 x i32], ptr %63, i64 0, i64 %65
  %67 = load i32, ptr %66, align 4
  %68 = icmp ne i32 %61, %67
  br i1 %68, label %69, label %70

69:                                               ; preds = %55
  store i1 false, ptr %4, align 1
  br label %189

70:                                               ; preds = %55
  %71 = load ptr, ptr %5, align 8
  %72 = getelementptr inbounds nuw %struct.boards, ptr %71, i32 0, i32 3
  %73 = load i32, ptr %6, align 4
  %74 = zext i32 %73 to i64
  %75 = getelementptr inbounds [200 x i32], ptr %72, i64 0, i64 %74
  %76 = load i32, ptr %75, align 4
  %77 = load ptr, ptr %5, align 8
  %78 = getelementptr inbounds nuw %struct.boards, ptr %77, i32 0, i32 3
  %79 = load i32, ptr %7, align 4
  %80 = zext i32 %79 to i64
  %81 = getelementptr inbounds [200 x i32], ptr %78, i64 0, i64 %80
  %82 = load i32, ptr %81, align 4
  %83 = icmp ne i32 %76, %82
  br i1 %83, label %84, label %85

84:                                               ; preds = %70
  store i1 false, ptr %4, align 1
  br label %189

85:                                               ; preds = %70
  %86 = load ptr, ptr %5, align 8
  %87 = getelementptr inbounds nuw %struct.boards, ptr %86, i32 0, i32 2
  %88 = load i32, ptr %6, align 4
  %89 = zext i32 %88 to i64
  %90 = getelementptr inbounds [200 x i32], ptr %87, i64 0, i64 %89
  %91 = load i32, ptr %90, align 4
  %92 = load ptr, ptr %5, align 8
  %93 = getelementptr inbounds nuw %struct.boards, ptr %92, i32 0, i32 2
  %94 = load i32, ptr %7, align 4
  %95 = zext i32 %94 to i64
  %96 = getelementptr inbounds [200 x i32], ptr %93, i64 0, i64 %95
  %97 = load i32, ptr %96, align 4
  %98 = icmp ne i32 %91, %97
  br i1 %98, label %99, label %100

99:                                               ; preds = %85
  store i1 false, ptr %4, align 1
  br label %189

100:                                              ; preds = %85
  %101 = load ptr, ptr %5, align 8
  %102 = getelementptr inbounds nuw %struct.boards, ptr %101, i32 0, i32 1
  %103 = load i32, ptr %6, align 4
  %104 = zext i32 %103 to i64
  %105 = getelementptr inbounds [200 x %struct.deal], ptr %102, i64 0, i64 %104
  %106 = getelementptr inbounds nuw %struct.deal, ptr %105, i32 0, i32 1
  %107 = load i32, ptr %106, align 4
  %108 = load ptr, ptr %5, align 8
  %109 = getelementptr inbounds nuw %struct.boards, ptr %108, i32 0, i32 1
  %110 = load i32, ptr %7, align 4
  %111 = zext i32 %110 to i64
  %112 = getelementptr inbounds [200 x %struct.deal], ptr %109, i64 0, i64 %111
  %113 = getelementptr inbounds nuw %struct.deal, ptr %112, i32 0, i32 1
  %114 = load i32, ptr %113, align 4
  %115 = icmp ne i32 %107, %114
  br i1 %115, label %116, label %117

116:                                              ; preds = %100
  store i1 false, ptr %4, align 1
  br label %189

117:                                              ; preds = %100
  %118 = load ptr, ptr %5, align 8
  %119 = getelementptr inbounds nuw %struct.boards, ptr %118, i32 0, i32 1
  %120 = load i32, ptr %6, align 4
  %121 = zext i32 %120 to i64
  %122 = getelementptr inbounds [200 x %struct.deal], ptr %119, i64 0, i64 %121
  %123 = getelementptr inbounds nuw %struct.deal, ptr %122, i32 0, i32 0
  %124 = load i32, ptr %123, align 4
  %125 = load ptr, ptr %5, align 8
  %126 = getelementptr inbounds nuw %struct.boards, ptr %125, i32 0, i32 1
  %127 = load i32, ptr %7, align 4
  %128 = zext i32 %127 to i64
  %129 = getelementptr inbounds [200 x %struct.deal], ptr %126, i64 0, i64 %128
  %130 = getelementptr inbounds nuw %struct.deal, ptr %129, i32 0, i32 0
  %131 = load i32, ptr %130, align 4
  %132 = icmp ne i32 %124, %131
  br i1 %132, label %133, label %134

133:                                              ; preds = %117
  store i1 false, ptr %4, align 1
  br label %189

134:                                              ; preds = %117
  store i32 0, ptr %10, align 4
  br label %135

135:                                              ; preds = %185, %134
  %136 = load i32, ptr %10, align 4
  %137 = icmp slt i32 %136, 3
  br i1 %137, label %138, label %188

138:                                              ; preds = %135
  %139 = load ptr, ptr %5, align 8
  %140 = getelementptr inbounds nuw %struct.boards, ptr %139, i32 0, i32 1
  %141 = load i32, ptr %6, align 4
  %142 = zext i32 %141 to i64
  %143 = getelementptr inbounds [200 x %struct.deal], ptr %140, i64 0, i64 %142
  %144 = getelementptr inbounds nuw %struct.deal, ptr %143, i32 0, i32 2
  %145 = load i32, ptr %10, align 4
  %146 = sext i32 %145 to i64
  %147 = getelementptr inbounds [3 x i32], ptr %144, i64 0, i64 %146
  %148 = load i32, ptr %147, align 4
  %149 = load ptr, ptr %5, align 8
  %150 = getelementptr inbounds nuw %struct.boards, ptr %149, i32 0, i32 1
  %151 = load i32, ptr %7, align 4
  %152 = zext i32 %151 to i64
  %153 = getelementptr inbounds [200 x %struct.deal], ptr %150, i64 0, i64 %152
  %154 = getelementptr inbounds nuw %struct.deal, ptr %153, i32 0, i32 2
  %155 = load i32, ptr %10, align 4
  %156 = sext i32 %155 to i64
  %157 = getelementptr inbounds [3 x i32], ptr %154, i64 0, i64 %156
  %158 = load i32, ptr %157, align 4
  %159 = icmp ne i32 %148, %158
  br i1 %159, label %160, label %161

160:                                              ; preds = %138
  store i1 false, ptr %4, align 1
  br label %189

161:                                              ; preds = %138
  %162 = load ptr, ptr %5, align 8
  %163 = getelementptr inbounds nuw %struct.boards, ptr %162, i32 0, i32 1
  %164 = load i32, ptr %6, align 4
  %165 = zext i32 %164 to i64
  %166 = getelementptr inbounds [200 x %struct.deal], ptr %163, i64 0, i64 %165
  %167 = getelementptr inbounds nuw %struct.deal, ptr %166, i32 0, i32 3
  %168 = load i32, ptr %10, align 4
  %169 = sext i32 %168 to i64
  %170 = getelementptr inbounds [3 x i32], ptr %167, i64 0, i64 %169
  %171 = load i32, ptr %170, align 4
  %172 = load ptr, ptr %5, align 8
  %173 = getelementptr inbounds nuw %struct.boards, ptr %172, i32 0, i32 1
  %174 = load i32, ptr %7, align 4
  %175 = zext i32 %174 to i64
  %176 = getelementptr inbounds [200 x %struct.deal], ptr %173, i64 0, i64 %175
  %177 = getelementptr inbounds nuw %struct.deal, ptr %176, i32 0, i32 3
  %178 = load i32, ptr %10, align 4
  %179 = sext i32 %178 to i64
  %180 = getelementptr inbounds [3 x i32], ptr %177, i64 0, i64 %179
  %181 = load i32, ptr %180, align 4
  %182 = icmp ne i32 %171, %181
  br i1 %182, label %183, label %184

183:                                              ; preds = %161
  store i1 false, ptr %4, align 1
  br label %189

184:                                              ; preds = %161
  br label %185

185:                                              ; preds = %184
  %186 = load i32, ptr %10, align 4
  %187 = add nsw i32 %186, 1
  store i32 %187, ptr %10, align 4
  br label %135, !llvm.loop !16

188:                                              ; preds = %135
  store i1 true, ptr %4, align 1
  br label %189

189:                                              ; preds = %188, %183, %160, %133, %116, %99, %84, %69, %46
  %190 = load i1, ptr %4, align 1
  ret i1 %190
}