; Function Attrs: mustprogress nofree norecurse nosync nounwind willreturn memory(argmem: read) uwtable
define noundef zeroext i1 @_Z9SameBoardRK6boardsjj(ptr noundef nonnull readonly align 4 captures(none) dereferenceable(21604) %0, i32 noundef %1, i32 noundef %2) local_unnamed_addr #6 {
  %4 = getelementptr inbounds nuw i8, ptr %0, i64 4
  %5 = zext i32 %1 to i64
  %.idx = mul nuw nsw i64 %5, 96
  %6 = getelementptr inbounds nuw i8, ptr %4, i64 %.idx
  %7 = getelementptr inbounds nuw i8, ptr %6, i64 32
  %8 = zext i32 %2 to i64
  %.idx55 = mul nuw nsw i64 %8, 96
  %9 = getelementptr inbounds nuw i8, ptr %4, i64 %.idx55
  %10 = getelementptr inbounds nuw i8, ptr %9, i64 32
  br label %.preheader57

.preheader57:                                     ; preds = %3, %17
  %indvars.iv64 = phi i64 [ 0, %3 ], [ %indvars.iv.next65, %17 ]
  br label %12

11:                                               ; preds = %12
  %indvars.iv.next = add nuw nsw i64 %indvars.iv, 1
  %exitcond.not = icmp eq i64 %indvars.iv.next, 4
  br i1 %exitcond.not, label %17, label %12, !llvm.loop !12

12:                                               ; preds = %.preheader57, %11
  %indvars.iv = phi i64 [ 0, %.preheader57 ], [ %indvars.iv.next, %11 ]
  %13 = getelementptr inbounds nuw [4 x [4 x i32]], ptr %7, i64 0, i64 %indvars.iv64, i64 %indvars.iv
  %14 = load i32, ptr %13, align 4
  %15 = getelementptr inbounds nuw [4 x [4 x i32]], ptr %10, i64 0, i64 %indvars.iv64, i64 %indvars.iv
  %16 = load i32, ptr %15, align 4
  %.not56 = icmp eq i32 %14, %16
  br i1 %.not56, label %11, label %.loopexit

17:                                               ; preds = %11
  %indvars.iv.next65 = add nuw nsw i64 %indvars.iv64, 1
  %exitcond67.not = icmp eq i64 %indvars.iv.next65, 4
  br i1 %exitcond67.not, label %18, label %.preheader57, !llvm.loop !13

18:                                               ; preds = %17
  %19 = getelementptr inbounds nuw i8, ptr %0, i64 20804
  %20 = getelementptr inbounds nuw [200 x i32], ptr %19, i64 0, i64 %5
  %21 = load i32, ptr %20, align 4
  %22 = getelementptr inbounds nuw [200 x i32], ptr %19, i64 0, i64 %8
  %23 = load i32, ptr %22, align 4
  %.not = icmp eq i32 %21, %23
  br i1 %.not, label %24, label %.loopexit

24:                                               ; preds = %18
  %25 = getelementptr inbounds nuw i8, ptr %0, i64 20004
  %26 = getelementptr inbounds nuw [200 x i32], ptr %25, i64 0, i64 %5
  %27 = load i32, ptr %26, align 4
  %28 = getelementptr inbounds nuw [200 x i32], ptr %25, i64 0, i64 %8
  %29 = load i32, ptr %28, align 4
  %.not49 = icmp eq i32 %27, %29
  br i1 %.not49, label %30, label %.loopexit

30:                                               ; preds = %24
  %31 = getelementptr inbounds nuw i8, ptr %0, i64 19204
  %32 = getelementptr inbounds nuw [200 x i32], ptr %31, i64 0, i64 %5
  %33 = load i32, ptr %32, align 4
  %34 = getelementptr inbounds nuw [200 x i32], ptr %31, i64 0, i64 %8
  %35 = load i32, ptr %34, align 4
  %.not50 = icmp eq i32 %33, %35
  br i1 %.not50, label %36, label %.loopexit

36:                                               ; preds = %30
  %37 = getelementptr inbounds nuw [200 x %struct.deal], ptr %4, i64 0, i64 %5
  %38 = getelementptr inbounds nuw i8, ptr %37, i64 4
  %39 = load i32, ptr %38, align 4
  %40 = getelementptr inbounds nuw [200 x %struct.deal], ptr %4, i64 0, i64 %8
  %41 = getelementptr inbounds nuw i8, ptr %40, i64 4
  %42 = load i32, ptr %41, align 4
  %.not51 = icmp eq i32 %39, %42
  br i1 %.not51, label %43, label %.loopexit

43:                                               ; preds = %36
  %44 = load i32, ptr %37, align 4
  %45 = load i32, ptr %40, align 4
  %.not52 = icmp eq i32 %44, %45
  br i1 %.not52, label %.preheader, label %.loopexit

.preheader:                                       ; preds = %43
  %46 = getelementptr inbounds nuw i8, ptr %37, i64 8
  %47 = getelementptr inbounds nuw i8, ptr %37, i64 20
  %48 = getelementptr inbounds nuw i8, ptr %40, i64 8
  %49 = getelementptr inbounds nuw i8, ptr %40, i64 20
  br label %51

50:                                               ; preds = %56
  %indvars.iv.next69 = add nuw nsw i64 %indvars.iv68, 1
  %exitcond71.not = icmp eq i64 %indvars.iv.next69, 3
  br i1 %exitcond71.not, label %.loopexit, label %51, !llvm.loop !14

51:                                               ; preds = %.preheader, %50
  %indvars.iv68 = phi i64 [ 0, %.preheader ], [ %indvars.iv.next69, %50 ]
  %52 = getelementptr inbounds nuw [3 x i32], ptr %46, i64 0, i64 %indvars.iv68
  %53 = load i32, ptr %52, align 4
  %54 = getelementptr inbounds nuw [3 x i32], ptr %48, i64 0, i64 %indvars.iv68
  %55 = load i32, ptr %54, align 4
  %.not53 = icmp eq i32 %53, %55
  br i1 %.not53, label %56, label %.loopexit

56:                                               ; preds = %51
  %57 = getelementptr inbounds nuw [3 x i32], ptr %47, i64 0, i64 %indvars.iv68
  %58 = load i32, ptr %57, align 4
  %59 = getelementptr inbounds nuw [3 x i32], ptr %49, i64 0, i64 %indvars.iv68
  %60 = load i32, ptr %59, align 4
  %.not54 = icmp eq i32 %58, %60
  br i1 %.not54, label %50, label %.loopexit

.loopexit:                                        ; preds = %12, %50, %56, %51, %43, %36, %30, %24, %18
  %.048 = phi i1 [ false, %18 ], [ false, %24 ], [ false, %30 ], [ false, %36 ], [ false, %43 ], [ true, %50 ], [ false, %56 ], [ false, %51 ], [ false, %12 ]
  ret i1 %.048
}